; Function Attrs: nounwind uwtable
define hidden i32 @lj_ir_k64(ptr noundef captures(none) %0, i32 noundef %1, i64 noundef %2) local_unnamed_addr #6 {
  %4 = getelementptr inbounds nuw i8, ptr %0, i64 32
  %5 = load ptr, ptr %4, align 8, !tbaa !30
  %6 = icmp eq i32 %1, 28
  %7 = select i1 %6, i32 14, i32 21
  %8 = getelementptr inbounds nuw i8, ptr %0, i64 402
  %9 = zext i32 %1 to i64
  %10 = getelementptr inbounds nuw [101 x i16], ptr %8, i64 0, i64 %9
  %.0.in27 = load i16, ptr %10, align 2, !tbaa !33
  %.not28 = icmp eq i16 %.0.in27, 0
  br i1 %.not28, label %._crit_edge, label %.lr.ph

11:                                               ; preds = %.lr.ph
  %12 = getelementptr inbounds nuw i8, ptr %14, i64 6
  %.0.in = load i16, ptr %12, align 2, !tbaa !33
  %.not = icmp eq i16 %.0.in, 0
  br i1 %.not, label %._crit_edge, label %.lr.ph, !llvm.loop !44

.lr.ph:                                           ; preds = %3, %11
  %.0.in29 = phi i16 [ %.0.in, %11 ], [ %.0.in27, %3 ]
  %13 = zext i16 %.0.in29 to i64
  %14 = getelementptr inbounds nuw %union.IRIns, ptr %5, i64 %13
  %15 = getelementptr inbounds nuw i8, ptr %14, i64 8
  %16 = load i64, ptr %15, align 8, !tbaa !33
  %17 = icmp eq i64 %16, %2
  br i1 %17, label %.loopexit, label %11

._crit_edge:                                      ; preds = %11, %3
  %18 = getelementptr inbounds nuw i8, ptr %0, i64 40
  %19 = load i32, ptr %18, align 8, !tbaa !43
  %20 = add i32 %19, -2
  %21 = getelementptr inbounds nuw i8, ptr %0, i64 340
  %22 = load i32, ptr %21, align 4, !tbaa !4
  %23 = icmp ult i32 %20, %22
  br i1 %23, label %24, label %ir_nextk64.exit, !prof !45

24:                                               ; preds = %._crit_edge
  tail call fastcc void @lj_ir_growbot(ptr noundef nonnull %0)
  %.pre = load ptr, ptr %4, align 8, !tbaa !30
  br label %ir_nextk64.exit

ir_nextk64.exit:                                  ; preds = %._crit_edge, %24
  %25 = phi ptr [ %5, %._crit_edge ], [ %.pre, %24 ]
  store i32 %20, ptr %18, align 8, !tbaa !43
  %26 = zext i32 %20 to i64
  %27 = getelementptr inbounds nuw %union.IRIns, ptr %25, i64 %26
  %28 = getelementptr inbounds nuw i8, ptr %27, i64 8
  store i64 %2, ptr %28, align 8, !tbaa !33
  %29 = trunc nuw nsw i32 %7 to i8
  %30 = getelementptr inbounds nuw i8, ptr %27, i64 4
  store i8 %29, ptr %30, align 4, !tbaa !33
  %31 = trunc i32 %1 to i8
  %32 = getelementptr inbounds nuw i8, ptr %27, i64 5
  store i8 %31, ptr %32, align 1, !tbaa !33
  store i32 0, ptr %27, align 8, !tbaa !33
  %33 = load i16, ptr %10, align 2, !tbaa !34
  %34 = getelementptr inbounds nuw i8, ptr %27, i64 6
  store i16 %33, ptr %34, align 2, !tbaa !33
  %35 = trunc i32 %20 to i16
  store i16 %35, ptr %10, align 2, !tbaa !34
  br label %36

.loopexit:                                        ; preds = %.lr.ph
  %.0.le = zext i16 %.0.in29 to i32
  br label %36

36:                                               ; preds = %.loopexit, %ir_nextk64.exit
  %.1 = phi i32 [ %20, %ir_nextk64.exit ], [ %.0.le, %.loopexit ]
  %37 = shl nuw nsw i32 %7, 24
  %38 = add i32 %.1, %37
  ret i32 %38
}